
target/bfpi.elf.fat:	file format elf32-littleriscv

Disassembly of section .text:

00000000 <_start>:
       0: 37 41 00 20  	lui	sp, 131076
       4: 11 28        	jal	0x18 <main>
       6: aa 81        	mv	gp, a0
       8: 93 08 d0 05  	li	a7, 93
       c: 01 00        	nop
       e: 01 00        	nop
      10: 01 00        	nop
      12: 01 00        	nop
      14: 73 00 00 00  	ecall

00000018 <main>:
      18: 09 a0        	j	0x1a <.Ltmp0>

0000001a <.Ltmp0>:
      1a: 89 41        	li	gp, 2
      1c: 37 51 34 12  	lui	sp, 74565
      20: 13 01 81 67  	addi	sp, sp, 1656
      24: b7 e0 bc 9a  	lui	ra, 633806
      28: 93 80 a0 ef  	addi	ra, ra, -262   # 9abcdefa
      2c: 57 16 51 0e  	bfpi	a2, sp, ra, 8, 4
      30: b7 e3 bc 9a  	lui	t2, 633806
      34: 93 83 a3 8f  	addi	t2, t2, -1798   # 9abcd8fa
      38: 63 18 76 08  	bne	a2, t2, 0xc8 <.Ltmp1>
      3c: 8d 41        	li	gp, 3
      3e: 37 51 34 12  	lui	sp, 74565
      42: 13 01 81 67  	addi	sp, sp, 1656
      46: b7 e0 bc 9a  	lui	ra, 633806
      4a: 93 80 a0 ef  	addi	ra, ra, -262   # 9abcdefa
      4e: 57 16 41 0c  	bfpi	a2, sp, ra, 4, 0
      52: b7 63 45 23  	lui	t2, 144470
      56: 93 83 a3 78  	addi	t2, t2, 1930   # 2345678a
      5a: 63 17 76 06  	bne	a2, t2, 0xc8 <.Ltmp1>
      5e: 91 41        	li	gp, 4
      60: 37 51 34 12  	lui	sp, 74565
      64: 13 01 81 67  	addi	sp, sp, 1656
      68: b7 e0 bc 9a  	lui	ra, 633806
      6c: 93 80 a0 ef  	addi	ra, ra, -262   # 9abcdefa
      70: 57 16 81 0e  	bfpi	a2, sp, ra, 24, 8
      74: b7 e3 bc 78  	lui	t2, 494542
      78: 93 83 a3 ef  	addi	t2, t2, -262   # 78bcdefa
      7c: 63 16 76 04  	bne	a2, t2, 0xc8 <.Ltmp1>
      80: 95 41        	li	gp, 5
      82: 37 51 34 12  	lui	sp, 74565
      86: 13 01 81 67  	addi	sp, sp, 1656
      8a: b7 e0 bc 9a  	lui	ra, 633806
      8e: 93 80 a0 ef  	addi	ra, ra, -262   # 9abcdefa
      92: 57 16 f1 0f  	bfpi	a2, sp, ra, 16, 16
      96: b7 e3 78 56  	lui	t2, 354190
      9a: 93 83 a3 ef  	addi	t2, t2, -262   # 5678defa
      9e: 63 15 76 02  	bne	a2, t2, 0xc8 <.Ltmp1>
      a2: 99 41        	li	gp, 6
      a4: 37 51 34 12  	lui	sp, 74565
      a8: 13 01 81 67  	addi	sp, sp, 1656
      ac: b7 e0 bc 9a  	lui	ra, 633806
      b0: 93 80 a0 ef  	addi	ra, ra, -262   # 9abcdefa
      b4: 57 16 e1 0d  	bfpi	a2, sp, ra, 12, 3
      b8: b7 93 bc 9a  	lui	t2, 633801
      bc: 93 83 a3 ef  	addi	t2, t2, -262   # 9abc8efa
      c0: 63 14 76 00  	bne	a2, t2, 0xc8 <.Ltmp1>
      c4: 63 01 76 02  	beq	a2, t2, 0xe6 <.Ltmp6>

000000c8 <.Ltmp1>:
      c8: 0f 00 f0 0f  	fence

000000cc <.Ltmp7>:
      cc: 63 80 01 00  	beqz	gp, 0xcc <.Ltmp7>
      d0: 86 01        	slli	gp, gp, 1
      d2: 93 e1 11 00  	ori	gp, gp, 1
      d6: 93 08 d0 05  	li	a7, 93
      da: 0e 85        	mv	a0, gp
      dc: 73 00 00 00  	ecall
      e0: 01 00        	nop
      e2: 01 00        	nop
      e4: d5 b7        	j	0xc8 <.Ltmp1>

000000e6 <.Ltmp6>:
      e6: 0f 00 f0 0f  	fence
      ea: 85 41        	li	gp, 1
      ec: 93 08 d0 05  	li	a7, 93
      f0: 01 45        	li	a0, 0
      f2: 73 00 00 00  	ecall
      f6: 01 00        	nop
      f8: 01 00        	nop
      fa: f5 b7        	j	0xe6 <.Ltmp6>
      fc: 01 45        	li	a0, 0
      fe: 82 80        	ret
