
br:     file format elf32-littleriscv


Disassembly of section .text:

00000000 <_start>:
   0:	20002137          	lui	sp,0x20002
   4:	020000ef          	jal	ra,24 <main>
   8:	00050193          	mv	gp,a0
   c:	05d00893          	li	a7,93
  10:	00000013          	nop
  14:	00000013          	nop
  18:	00000013          	nop
  1c:	00000013          	nop
  20:	00000073          	ecall

Disassembly of section .text.startup:

00000024 <main>:
  24:	00200513          	li	a0,2
  28:	00000013          	nop
  2c:	00000013          	nop
  30:	00000393          	li	t2,0
  34:	00000293          	li	t0,0
  38:	fff00713          	li	a4,-1
  3c:	00000013          	nop
  40:	02028663          	beqz	t0,6c <main+0x48>
  44:	c0002873          	rdcycle	a6
  48:	05071063          	bne	a4,a6,88 <fail>
  4c:	00138393          	addi	t2,t2,1
  50:	00138393          	addi	t2,t2,1
  54:	00138393          	addi	t2,t2,1
  58:	00138393          	addi	t2,t2,1
  5c:	00138393          	addi	t2,t2,1
  60:	00138393          	addi	t2,t2,1
  64:	00138393          	addi	t2,t2,1
  68:	0200006f          	j	88 <fail>
  6c:	00138393          	addi	t2,t2,1
  70:	00138393          	addi	t2,t2,1
  74:	00138393          	addi	t2,t2,1
  78:	00138393          	addi	t2,t2,1
  7c:	00100513          	li	a0,1
  80:	00008067          	ret
  84:	00000013          	nop

00000088 <fail>:
  88:	00500513          	li	a0,5
  8c:	00008067          	ret
