
fizzbuzz:     file format elf32-littleriscv


Disassembly of section .text:

00000000 <_start>:
   0:	20002137          	lui	sp,0x20002
   4:	1e2000ef          	jal	ra,1e6 <main>
   8:	00050193          	mv	gp,a0
   c:	05d00893          	li	a7,93
  10:	00000013          	nop
  14:	00000013          	nop
  18:	00000013          	nop
  1c:	00000013          	nop
  20:	00000073          	ecall

00000024 <fizzbuzz>:
  24:	7139                	addi	sp,sp,-64
  26:	d84a                	sw	s2,48(sp)
  28:	de06                	sw	ra,60(sp)
  2a:	dc22                	sw	s0,56(sp)
  2c:	da26                	sw	s1,52(sp)
  2e:	d64e                	sw	s3,44(sp)
  30:	d452                	sw	s4,40(sp)
  32:	d256                	sw	s5,36(sp)
  34:	d05a                	sw	s6,32(sp)
  36:	ce5e                	sw	s7,28(sp)
  38:	cc62                	sw	s8,24(sp)
  3a:	ca66                	sw	s9,20(sp)
  3c:	c86a                	sw	s10,16(sp)
  3e:	c66e                	sw	s11,12(sp)
  40:	00c58933          	add	s2,a1,a2
  44:	10a05e63          	blez	a0,160 <fizzbuzz+0x13c>
  48:	4985                	li	s3,1
  4a:	0725f763          	bgeu	a1,s2,b8 <fizzbuzz+0x94>
  4e:	8a2a                	mv	s4,a0
  50:	4a85                	li	s5,1
  52:	02c00b13          	li	s6,44
  56:	02000b93          	li	s7,32
  5a:	11598163          	beq	s3,s5,15c <fizzbuzz+0x138>
  5e:	00158413          	addi	s0,a1,1
  62:	01658023          	sb	s6,0(a1)
  66:	01247663          	bgeu	s0,s2,72 <fizzbuzz+0x4e>
  6a:	00258413          	addi	s0,a1,2
  6e:	017580a3          	sb	s7,1(a1)
  72:	45bd                	li	a1,15
  74:	854e                	mv	a0,s3
  76:	22a9                	jal	1c0 <__modsi3>
  78:	20800793          	li	a5,520
  7c:	00940593          	addi	a1,s0,9
  80:	cd15                	beqz	a0,bc <fizzbuzz+0x98>
  82:	4595                	li	a1,5
  84:	854e                	mv	a0,s3
  86:	2a2d                	jal	1c0 <__modsi3>
  88:	c95d                	beqz	a0,13e <fizzbuzz+0x11a>
  8a:	458d                	li	a1,3
  8c:	854e                	mv	a0,s3
  8e:	2a0d                	jal	1c0 <__modsi3>
  90:	e925                	bnez	a0,100 <fizzbuzz+0xdc>
  92:	21c00793          	li	a5,540
  96:	00440593          	addi	a1,s0,4
  9a:	03247d63          	bgeu	s0,s2,d4 <fizzbuzz+0xb0>
  9e:	0007c703          	lbu	a4,0(a5)
  a2:	0405                	addi	s0,s0,1
  a4:	0785                	addi	a5,a5,1
  a6:	fee40fa3          	sb	a4,-1(s0)
  aa:	feb418e3          	bne	s0,a1,9a <fizzbuzz+0x76>
  ae:	0985                	addi	s3,s3,1
  b0:	0b3a4863          	blt	s4,s3,160 <fizzbuzz+0x13c>
  b4:	fb25e3e3          	bltu	a1,s2,5a <fizzbuzz+0x36>
  b8:	842e                	mv	s0,a1
  ba:	a01d                	j	e0 <fizzbuzz+0xbc>
  bc:	01247c63          	bgeu	s0,s2,d4 <fizzbuzz+0xb0>
  c0:	0007c703          	lbu	a4,0(a5)
  c4:	0405                	addi	s0,s0,1
  c6:	0785                	addi	a5,a5,1
  c8:	fee40fa3          	sb	a4,-1(s0)
  cc:	fe8581e3          	beq	a1,s0,ae <fizzbuzz+0x8a>
  d0:	ff2468e3          	bltu	s0,s2,c0 <fizzbuzz+0x9c>
  d4:	0149c663          	blt	s3,s4,e0 <fizzbuzz+0xbc>
  d8:	01247463          	bgeu	s0,s2,e0 <fizzbuzz+0xbc>
  dc:	00040023          	sb	zero,0(s0)
  e0:	50f2                	lw	ra,60(sp)
  e2:	8522                	mv	a0,s0
  e4:	5462                	lw	s0,56(sp)
  e6:	54d2                	lw	s1,52(sp)
  e8:	5942                	lw	s2,48(sp)
  ea:	59b2                	lw	s3,44(sp)
  ec:	5a22                	lw	s4,40(sp)
  ee:	5a92                	lw	s5,36(sp)
  f0:	5b02                	lw	s6,32(sp)
  f2:	4bf2                	lw	s7,28(sp)
  f4:	4c62                	lw	s8,24(sp)
  f6:	4cd2                	lw	s9,20(sp)
  f8:	4d42                	lw	s10,16(sp)
  fa:	4db2                	lw	s11,12(sp)
  fc:	6121                	addi	sp,sp,64
  fe:	8082                	ret
 100:	854e                	mv	a0,s3
 102:	4481                	li	s1,0
 104:	45a9                	li	a1,10
 106:	208d                	jal	168 <__divsi3>
 108:	87a6                	mv	a5,s1
 10a:	0485                	addi	s1,s1,1
 10c:	fd65                	bnez	a0,104 <fizzbuzz+0xe0>
 10e:	00f40d33          	add	s10,s0,a5
 112:	8dce                	mv	s11,s3
 114:	45a9                	li	a1,10
 116:	856e                	mv	a0,s11
 118:	012d7763          	bgeu	s10,s2,126 <fizzbuzz+0x102>
 11c:	2055                	jal	1c0 <__modsi3>
 11e:	03050513          	addi	a0,a0,48
 122:	00ad0023          	sb	a0,0(s10)
 126:	856e                	mv	a0,s11
 128:	45a9                	li	a1,10
 12a:	283d                	jal	168 <__divsi3>
 12c:	8daa                	mv	s11,a0
 12e:	1d7d                	addi	s10,s10,-1
 130:	f175                	bnez	a0,114 <fizzbuzz+0xf0>
 132:	009405b3          	add	a1,s0,s1
 136:	f6b97ce3          	bgeu	s2,a1,ae <fizzbuzz+0x8a>
 13a:	85ca                	mv	a1,s2
 13c:	bf8d                	j	ae <fizzbuzz+0x8a>
 13e:	21400793          	li	a5,532
 142:	00440593          	addi	a1,s0,4
 146:	f92477e3          	bgeu	s0,s2,d4 <fizzbuzz+0xb0>
 14a:	0007c703          	lbu	a4,0(a5)
 14e:	0405                	addi	s0,s0,1
 150:	0785                	addi	a5,a5,1
 152:	fee40fa3          	sb	a4,-1(s0)
 156:	fe8598e3          	bne	a1,s0,146 <fizzbuzz+0x122>
 15a:	bf91                	j	ae <fizzbuzz+0x8a>
 15c:	842e                	mv	s0,a1
 15e:	b735                	j	8a <fizzbuzz+0x66>
 160:	842e                	mv	s0,a1
 162:	f7246de3          	bltu	s0,s2,dc <fizzbuzz+0xb8>
 166:	bfad                	j	e0 <fizzbuzz+0xbc>

00000168 <__divsi3>:
 168:	02054e63          	bltz	a0,1a4 <__umodsi3+0x8>
 16c:	0405c363          	bltz	a1,1b2 <__umodsi3+0x16>

00000170 <__udivsi3>:
 170:	862e                	mv	a2,a1
 172:	85aa                	mv	a1,a0
 174:	557d                	li	a0,-1
 176:	c215                	beqz	a2,19a <__udivsi3+0x2a>
 178:	4685                	li	a3,1
 17a:	00b67863          	bgeu	a2,a1,18a <__udivsi3+0x1a>
 17e:	00c05663          	blez	a2,18a <__udivsi3+0x1a>
 182:	0606                	slli	a2,a2,0x1
 184:	0686                	slli	a3,a3,0x1
 186:	feb66ce3          	bltu	a2,a1,17e <__udivsi3+0xe>
 18a:	4501                	li	a0,0
 18c:	00c5e463          	bltu	a1,a2,194 <__udivsi3+0x24>
 190:	8d91                	sub	a1,a1,a2
 192:	8d55                	or	a0,a0,a3
 194:	8285                	srli	a3,a3,0x1
 196:	8205                	srli	a2,a2,0x1
 198:	faf5                	bnez	a3,18c <__udivsi3+0x1c>
 19a:	8082                	ret

0000019c <__umodsi3>:
 19c:	8286                	mv	t0,ra
 19e:	3fc9                	jal	170 <__udivsi3>
 1a0:	852e                	mv	a0,a1
 1a2:	8282                	jr	t0
 1a4:	40a00533          	neg	a0,a0
 1a8:	00b04763          	bgtz	a1,1b6 <__umodsi3+0x1a>
 1ac:	40b005b3          	neg	a1,a1
 1b0:	b7c1                	j	170 <__udivsi3>
 1b2:	40b005b3          	neg	a1,a1
 1b6:	8286                	mv	t0,ra
 1b8:	3f65                	jal	170 <__udivsi3>
 1ba:	40a00533          	neg	a0,a0
 1be:	8282                	jr	t0

000001c0 <__modsi3>:
 1c0:	8286                	mv	t0,ra
 1c2:	0005c763          	bltz	a1,1d0 <__modsi3+0x10>
 1c6:	00054963          	bltz	a0,1d8 <__modsi3+0x18>
 1ca:	375d                	jal	170 <__udivsi3>
 1cc:	852e                	mv	a0,a1
 1ce:	8282                	jr	t0
 1d0:	40b005b3          	neg	a1,a1
 1d4:	fe055be3          	bgez	a0,1ca <__modsi3+0xa>
 1d8:	40a00533          	neg	a0,a0
 1dc:	3f51                	jal	170 <__udivsi3>
 1de:	40b00533          	neg	a0,a1
 1e2:	8282                	jr	t0
	...

Disassembly of section .text.startup:

000001e6 <main>:
 1e6:	1141                	addi	sp,sp,-16 # 20001ff0 <main+0x20001e0a>
 1e8:	10000613          	li	a2,256
 1ec:	200015b7          	lui	a1,0x20001
 1f0:	4529                	li	a0,10
 1f2:	c606                	sw	ra,12(sp)
 1f4:	3d05                	jal	24 <fizzbuzz>
 1f6:	40b2                	lw	ra,12(sp)
 1f8:	dffff7b7          	lui	a5,0xdffff
 1fc:	953e                	add	a0,a0,a5
 1fe:	fd650513          	addi	a0,a0,-42
 202:	0141                	addi	sp,sp,16
 204:	8082                	ret
