
icache:     file format elf32-littleriscv


Disassembly of section .text:

00000000 <_start>:
   0:	20002137          	lui	sp,0x20002
   4:	040000ef          	jal	ra,44 <main>
   8:	00050193          	mv	gp,a0
   c:	05d00893          	li	a7,93
  10:	00000013          	nop
  14:	00000013          	nop
  18:	00000013          	nop
  1c:	00000013          	nop
  20:	00000073          	ecall

00000024 <func1>:
  24:	00400193          	li	gp,4
  28:	00008067          	ret

0000002c <func2>:
  2c:	fff18193          	addi	gp,gp,-1
  30:	00008067          	ret

00000034 <func3>:
  34:	ffe18193          	addi	gp,gp,-2
  38:	00008067          	ret

0000003c <func4>:
  3c:	00c00193          	li	gp,12
  40:	00008067          	ret

Disassembly of section .text.startup:

00000044 <main>:
  44:	ffc10113          	addi	sp,sp,-4 # 20001ffc <main+0x20001fb8>
  48:	00112023          	sw	ra,0(sp)
  4c:	00300193          	li	gp,3
  50:	20000437          	lui	s0,0x20000
  54:	200014b7          	lui	s1,0x20001
  58:	20002937          	lui	s2,0x20002
  5c:	00000397          	auipc	t2,0x0
  60:	fd838393          	addi	t2,t2,-40 # 34 <func3>
  64:	0003a283          	lw	t0,0(t2)
  68:	00542023          	sw	t0,0(s0) # 20000000 <main+0x1fffffbc>
  6c:	0043a283          	lw	t0,4(t2)
  70:	00542223          	sw	t0,4(s0)
  74:	00000397          	auipc	t2,0x0
  78:	fb038393          	addi	t2,t2,-80 # 24 <func1>
  7c:	0003a283          	lw	t0,0(t2)
  80:	0054a023          	sw	t0,0(s1) # 20001000 <main+0x20000fbc>
  84:	0043a283          	lw	t0,4(t2)
  88:	0054a223          	sw	t0,4(s1)
  8c:	0000100f          	fence.i
  90:	000480e7          	jalr	s1
  94:	00000397          	auipc	t2,0x0
  98:	f9838393          	addi	t2,t2,-104 # 2c <func2>
  9c:	0003a283          	lw	t0,0(t2)
  a0:	0054a023          	sw	t0,0(s1)
  a4:	0043a283          	lw	t0,4(t2)
  a8:	0054a223          	sw	t0,4(s1)
  ac:	0000100f          	fence.i
  b0:	000480e7          	jalr	s1
  b4:	00000397          	auipc	t2,0x0
  b8:	f8838393          	addi	t2,t2,-120 # 3c <func4>
  bc:	0003a283          	lw	t0,0(t2)
  c0:	00592023          	sw	t0,0(s2) # 20002000 <main+0x20001fbc>
  c4:	0043a283          	lw	t0,4(t2)
  c8:	00592223          	sw	t0,4(s2)
  cc:	0000100f          	fence.i
  d0:	000400e7          	jalr	s0
  d4:	00018513          	mv	a0,gp
  d8:	00012083          	lw	ra,0(sp)
  dc:	00410113          	addi	sp,sp,4
  e0:	00008067          	ret
