
sdc:     file format elf32-littleriscv


Disassembly of section .text:

00000000 <_start>:
   0:	20002137          	lui	sp,0x20002
   4:	020000ef          	jal	ra,24 <main>
   8:	00050193          	mv	gp,a0
   c:	05d00893          	li	a7,93
  10:	00000013          	nop
  14:	00000013          	nop
  18:	00000013          	nop
  1c:	00000013          	nop
  20:	00000073          	ecall

Disassembly of section .text.startup:

00000024 <main>:
  24:	80000737          	lui	a4,0x80000
  28:	300037b7          	lui	a5,0x30003
  2c:	0709                	addi	a4,a4,2 # 80000002 <main+0x7fffffde>
  2e:	c398                	sw	a4,0(a5)
  30:	1234d737          	lui	a4,0x1234d
  34:	def70713          	addi	a4,a4,-529 # 1234cdef <main+0x1234cdcb>
  38:	c798                	sw	a4,8(a5)
  3a:	6705                	lui	a4,0x1
  3c:	81170713          	addi	a4,a4,-2031 # 811 <main+0x7ed>
  40:	c3d8                	sw	a4,4(a5)
  42:	300036b7          	lui	a3,0x30003
  46:	42dc                	lw	a5,4(a3)
  48:	0017f713          	andi	a4,a5,1
  4c:	df6d                	beqz	a4,46 <main+0x22>
  4e:	4698                	lw	a4,8(a3)
  50:	4685                	li	a3,1
  52:	4501                	li	a0,0
  54:	00d78363          	beq	a5,a3,5a <main+0x36>
  58:	8082                	ret
  5a:	edcb37b7          	lui	a5,0xedcb3
  5e:	21178793          	addi	a5,a5,529 # edcb3211 <main+0xedcb31ed>
  62:	973e                	add	a4,a4,a5
  64:	00173513          	seqz	a0,a4
  68:	8082                	ret
